#include <math.h>
#include <stdio.h>
#include <stdlib.h>
#include <string.h>

int main()
{
	int w,t=0,a;
	int month_days[13]={0,31,28,31,30,31,30,31,31,30,31,30,31};
	scanf("%d",&w);
	for (int i=1;i<=12;i++)
	{
		t+=month_days[i-1];
		a=t+w+12;
		if(a%7==5)
		{
			printf("%d\n",i);
		}

	}
	return 0;

}
